; Function Attrs: mustprogress nounwind uwtable
define internal fastcc { ptr, i8 } @_ZN12_GLOBAL__N_121ConstantLValueEmitter17VisitConstantExprEPKN5clang12ConstantExprE(ptr noundef nonnull readonly align 8 captures(none) dereferenceable(33) %0, ptr noundef %1) unnamed_addr #1 align 2 {
  %3 = getelementptr inbounds nuw i8, ptr %0, i64 8
  %4 = load ptr, ptr %3, align 8
  %5 = tail call noundef ptr @_ZN5clang7CodeGen15ConstantEmitter19tryEmitConstantExprEPKNS_12ConstantExprE(ptr noundef nonnull align 8 dereferenceable(112) %4, ptr noundef %1)
  %.not = icmp eq ptr %5, null
  br i1 %.not, label %6, label %10

6:                                                ; preds = %2
  %7 = getelementptr inbounds nuw i8, ptr %1, i64 16
  %8 = load ptr, ptr %7, align 8
  %9 = tail call fastcc { ptr, i8 } @_ZN5clang15StmtVisitorBaseIN4llvm14make_const_ptrEN12_GLOBAL__N_121ConstantLValueEmitterENS3_14ConstantLValueEJEE5VisitEPKNS_4StmtE(ptr noundef nonnull align 1 dereferenceable(1) %0, ptr noundef %8)
  %.fca.0.extract = extractvalue { ptr, i8 } %9, 0
  %.fca.1.extract = extractvalue { ptr, i8 } %9, 1
  br label %10

10:                                               ; preds = %2, %6
  %.sroa.3.0 = phi i8 [ %.fca.1.extract, %6 ], [ 0, %2 ]
  %.sroa.0.0 = phi ptr [ %.fca.0.extract, %6 ], [ %5, %2 ]
  %.fca.0.insert = insertvalue { ptr, i8 } poison, ptr %.sroa.0.0, 0
  %.fca.1.insert = insertvalue { ptr, i8 } %.fca.0.insert, i8 %.sroa.3.0, 1
  ret { ptr, i8 } %.fca.1.insert
}